target datalayout = "e-m:e-p270:32:32-p271:32:32-p272:64:64-i64:64-i128:128-f80:128-n8:16:32:64-S128"
target triple = "x86_64-pc-linux-gnu"

%struct.cbb_buffer_st = type { ptr, i64, i64, i8 }
%struct.cbb_st = type { ptr, ptr, i64, i8, i8, i8 }

; Function Attrs: nounwind uwtable
define hidden i32 @CBB_flush(ptr noundef %0) #0 {
  %2 = alloca i32, align 4
  %3 = alloca ptr, align 8
  %4 = alloca i64, align 8
  %5 = alloca i64, align 8
  %6 = alloca i64, align 8
  %7 = alloca i32, align 4
  %8 = alloca i64, align 8
  %9 = alloca i8, align 1
  %10 = alloca i64, align 8
  store ptr %0, ptr %3, align 8, !tbaa !6
  call void @llvm.lifetime.start.p0(i64 8, ptr %4) #7
  call void @llvm.lifetime.start.p0(i64 8, ptr %5) #7
  call void @llvm.lifetime.start.p0(i64 8, ptr %6) #7
  %11 = load ptr, ptr %3, align 8, !tbaa !6
  %12 = getelementptr inbounds nuw %struct.cbb_st, ptr %11, i32 0, i32 0
  %13 = load ptr, ptr %12, align 8, !tbaa !22
  %14 = icmp eq ptr %13, null
  br i1 %14, label %15, label %16

15:                                               ; preds = %1
  store i32 0, ptr %2, align 4
  store i32 1, ptr %7, align 4
  br label %214

16:                                               ; preds = %1
  %17 = load ptr, ptr %3, align 8, !tbaa !6
  %18 = getelementptr inbounds nuw %struct.cbb_st, ptr %17, i32 0, i32 1
  %19 = load ptr, ptr %18, align 8, !tbaa !29
  %20 = icmp eq ptr %19, null
  br i1 %20, label %29, label %21

21:                                               ; preds = %16
  %22 = load ptr, ptr %3, align 8, !tbaa !6
  %23 = getelementptr inbounds nuw %struct.cbb_st, ptr %22, i32 0, i32 1
  %24 = load ptr, ptr %23, align 8, !tbaa !29
  %25 = getelementptr inbounds nuw %struct.cbb_st, ptr %24, i32 0, i32 3
  %26 = load i8, ptr %25, align 8, !tbaa !30
  %27 = zext i8 %26 to i32
  %28 = icmp eq i32 %27, 0
  br i1 %28, label %29, label %30

29:                                               ; preds = %21, %16
  store i32 1, ptr %2, align 4
  store i32 1, ptr %7, align 4
  br label %214

30:                                               ; preds = %21
  %31 = load ptr, ptr %3, align 8, !tbaa !6
  %32 = getelementptr inbounds nuw %struct.cbb_st, ptr %31, i32 0, i32 1
  %33 = load ptr, ptr %32, align 8, !tbaa !29
  %34 = getelementptr inbounds nuw %struct.cbb_st, ptr %33, i32 0, i32 2
  %35 = load i64, ptr %34, align 8, !tbaa !31
  %36 = load ptr, ptr %3, align 8, !tbaa !6
  %37 = getelementptr inbounds nuw %struct.cbb_st, ptr %36, i32 0, i32 1
  %38 = load ptr, ptr %37, align 8, !tbaa !29
  %39 = getelementptr inbounds nuw %struct.cbb_st, ptr %38, i32 0, i32 3
  %40 = load i8, ptr %39, align 8, !tbaa !30
  %41 = zext i8 %40 to i64
  %42 = add i64 %35, %41
  store i64 %42, ptr %4, align 8, !tbaa !11
  %43 = load ptr, ptr %3, align 8, !tbaa !6
  %44 = getelementptr inbounds nuw %struct.cbb_st, ptr %43, i32 0, i32 1
  %45 = load ptr, ptr %44, align 8, !tbaa !29
  %46 = call i32 @CBB_flush(ptr noundef %45)
  %47 = icmp ne i32 %46, 0
  br i1 %47, label %48, label %64

48:                                               ; preds = %30
  %49 = load i64, ptr %4, align 8, !tbaa !11
  %50 = load ptr, ptr %3, align 8, !tbaa !6
  %51 = getelementptr inbounds nuw %struct.cbb_st, ptr %50, i32 0, i32 1
  %52 = load ptr, ptr %51, align 8, !tbaa !29
  %53 = getelementptr inbounds nuw %struct.cbb_st, ptr %52, i32 0, i32 2
  %54 = load i64, ptr %53, align 8, !tbaa !31
  %55 = icmp ult i64 %49, %54
  br i1 %55, label %64, label %56

56:                                               ; preds = %48
  %57 = load ptr, ptr %3, align 8, !tbaa !6
  %58 = getelementptr inbounds nuw %struct.cbb_st, ptr %57, i32 0, i32 0
  %59 = load ptr, ptr %58, align 8, !tbaa !22
  %60 = getelementptr inbounds nuw %struct.cbb_buffer_st, ptr %59, i32 0, i32 1
  %61 = load i64, ptr %60, align 8, !tbaa !19
  %62 = load i64, ptr %4, align 8, !tbaa !11
  %63 = icmp ult i64 %61, %62
  br i1 %63, label %64, label %65

64:                                               ; preds = %56, %48, %30
  store i32 0, ptr %2, align 4
  store i32 1, ptr %7, align 4
  br label %214

65:                                               ; preds = %56
  %66 = load ptr, ptr %3, align 8, !tbaa !6
  %67 = getelementptr inbounds nuw %struct.cbb_st, ptr %66, i32 0, i32 0
  %68 = load ptr, ptr %67, align 8, !tbaa !22
  %69 = getelementptr inbounds nuw %struct.cbb_buffer_st, ptr %68, i32 0, i32 1
  %70 = load i64, ptr %69, align 8, !tbaa !19
  %71 = load i64, ptr %4, align 8, !tbaa !11
  %72 = sub i64 %70, %71
  store i64 %72, ptr %6, align 8, !tbaa !11
  %73 = load ptr, ptr %3, align 8, !tbaa !6
  %74 = getelementptr inbounds nuw %struct.cbb_st, ptr %73, i32 0, i32 1
  %75 = load ptr, ptr %74, align 8, !tbaa !29
  %76 = getelementptr inbounds nuw %struct.cbb_st, ptr %75, i32 0, i32 4
  %77 = load i8, ptr %76, align 1, !tbaa !32
  %78 = icmp ne i8 %77, 0
  br i1 %78, label %79, label %164

79:                                               ; preds = %65
  call void @llvm.lifetime.start.p0(i64 8, ptr %8) #7
  call void @llvm.lifetime.start.p0(i64 1, ptr %9) #7
  %80 = load i64, ptr %6, align 8, !tbaa !11
  %81 = icmp ugt i64 %80, 4294967294
  br i1 %81, label %82, label %83

82:                                               ; preds = %79
  store i32 0, ptr %2, align 4
  store i32 1, ptr %7, align 4
  br label %161

83:                                               ; preds = %79
  %84 = load i64, ptr %6, align 8, !tbaa !11
  %85 = icmp ugt i64 %84, 16777215
  br i1 %85, label %86, label %87

86:                                               ; preds = %83
  store i64 5, ptr %8, align 8, !tbaa !11
  store i8 -124, ptr %9, align 1, !tbaa !33
  br label %105

87:                                               ; preds = %83
  %88 = load i64, ptr %6, align 8, !tbaa !11
  %89 = icmp ugt i64 %88, 65535
  br i1 %89, label %90, label %91

90:                                               ; preds = %87
  store i64 4, ptr %8, align 8, !tbaa !11
  store i8 -125, ptr %9, align 1, !tbaa !33
  br label %104

91:                                               ; preds = %87
  %92 = load i64, ptr %6, align 8, !tbaa !11
  %93 = icmp ugt i64 %92, 255
  br i1 %93, label %94, label %95

94:                                               ; preds = %91
  store i64 3, ptr %8, align 8, !tbaa !11
  store i8 -126, ptr %9, align 1, !tbaa !33
  br label %103

95:                                               ; preds = %91
  %96 = load i64, ptr %6, align 8, !tbaa !11
  %97 = icmp ugt i64 %96, 127
  br i1 %97, label %98, label %99

98:                                               ; preds = %95
  store i64 2, ptr %8, align 8, !tbaa !11
  store i8 -127, ptr %9, align 1, !tbaa !33
  br label %102

99:                                               ; preds = %95
  store i64 1, ptr %8, align 8, !tbaa !11
  %100 = load i64, ptr %6, align 8, !tbaa !11
  %101 = trunc i64 %100 to i8
  store i8 %101, ptr %9, align 1, !tbaa !33
  store i64 0, ptr %6, align 8, !tbaa !11
  br label %102

102:                                              ; preds = %99, %98
  br label %103

103:                                              ; preds = %102, %94
  br label %104

104:                                              ; preds = %103, %90
  br label %105

105:                                              ; preds = %104, %86
  br label %106

106:                                              ; preds = %105
  %107 = load i64, ptr %8, align 8, !tbaa !11
  %108 = icmp ne i64 %107, 1
  br i1 %108, label %109, label %140

109:                                              ; preds = %106
  call void @llvm.lifetime.start.p0(i64 8, ptr %10) #7
  %110 = load i64, ptr %8, align 8, !tbaa !11
  %111 = sub i64 %110, 1
  store i64 %111, ptr %10, align 8, !tbaa !11
  %112 = load ptr, ptr %3, align 8, !tbaa !6
  %113 = getelementptr inbounds nuw %struct.cbb_st, ptr %112, i32 0, i32 0
  %114 = load ptr, ptr %113, align 8, !tbaa !22
  %115 = load i64, ptr %10, align 8, !tbaa !11
  %116 = call i32 @cbb_buffer_add(ptr noundef %114, ptr noundef null, i64 noundef %115)
  %117 = icmp ne i32 %116, 0
  br i1 %117, label %119, label %118

118:                                              ; preds = %109
  store i32 0, ptr %2, align 4
  store i32 1, ptr %7, align 4
  br label %137

119:                                              ; preds = %109
  %120 = load ptr, ptr %3, align 8, !tbaa !6
  %121 = getelementptr inbounds nuw %struct.cbb_st, ptr %120, i32 0, i32 0
  %122 = load ptr, ptr %121, align 8, !tbaa !22
  %123 = getelementptr inbounds nuw %struct.cbb_buffer_st, ptr %122, i32 0, i32 0
  %124 = load ptr, ptr %123, align 8, !tbaa !17
  %125 = load i64, ptr %4, align 8, !tbaa !11
  %126 = getelementptr inbounds nuw i8, ptr %124, i64 %125
  %127 = load i64, ptr %10, align 8, !tbaa !11
  %128 = getelementptr inbounds nuw i8, ptr %126, i64 %127
  %129 = load ptr, ptr %3, align 8, !tbaa !6
  %130 = getelementptr inbounds nuw %struct.cbb_st, ptr %129, i32 0, i32 0
  %131 = load ptr, ptr %130, align 8, !tbaa !22
  %132 = getelementptr inbounds nuw %struct.cbb_buffer_st, ptr %131, i32 0, i32 0
  %133 = load ptr, ptr %132, align 8, !tbaa !17
  %134 = load i64, ptr %4, align 8, !tbaa !11
  %135 = getelementptr inbounds nuw i8, ptr %133, i64 %134
  %136 = load i64, ptr %6, align 8, !tbaa !11
  call void @llvm.memmove.p0.p0.i64(ptr align 1 %128, ptr align 1 %135, i64 %136, i1 false)
  store i32 0, ptr %7, align 4
  br label %137

137:                                              ; preds = %119, %118
  call void @llvm.lifetime.end.p0(i64 8, ptr %10) #7
  %138 = load i32, ptr %7, align 4
  switch i32 %138, label %161 [
    i32 0, label %139
  ]

139:                                              ; preds = %137
  br label %140

140:                                              ; preds = %139, %106
  %141 = load i8, ptr %9, align 1, !tbaa !33
  %142 = load ptr, ptr %3, align 8, !tbaa !6
  %143 = getelementptr inbounds nuw %struct.cbb_st, ptr %142, i32 0, i32 0
  %144 = load ptr, ptr %143, align 8, !tbaa !22
  %145 = getelementptr inbounds nuw %struct.cbb_buffer_st, ptr %144, i32 0, i32 0
  %146 = load ptr, ptr %145, align 8, !tbaa !17
  %147 = load ptr, ptr %3, align 8, !tbaa !6
  %148 = getelementptr inbounds nuw %struct.cbb_st, ptr %147, i32 0, i32 1
  %149 = load ptr, ptr %148, align 8, !tbaa !29
  %150 = getelementptr inbounds nuw %struct.cbb_st, ptr %149, i32 0, i32 2
  %151 = load i64, ptr %150, align 8, !tbaa !31
  %152 = add i64 %151, 1
  store i64 %152, ptr %150, align 8, !tbaa !31
  %153 = getelementptr inbounds nuw i8, ptr %146, i64 %151
  store i8 %141, ptr %153, align 1, !tbaa !33
  %154 = load i64, ptr %8, align 8, !tbaa !11
  %155 = sub i64 %154, 1
  %156 = trunc i64 %155 to i8
  %157 = load ptr, ptr %3, align 8, !tbaa !6
  %158 = getelementptr inbounds nuw %struct.cbb_st, ptr %157, i32 0, i32 1
  %159 = load ptr, ptr %158, align 8, !tbaa !29
  %160 = getelementptr inbounds nuw %struct.cbb_st, ptr %159, i32 0, i32 3
  store i8 %156, ptr %160, align 8, !tbaa !30
  store i32 0, ptr %7, align 4
  br label %161

161:                                              ; preds = %140, %137, %82
  call void @llvm.lifetime.end.p0(i64 1, ptr %9) #7
  call void @llvm.lifetime.end.p0(i64 8, ptr %8) #7
  %162 = load i32, ptr %7, align 4
  switch i32 %162, label %214 [
    i32 0, label %163
  ]

163:                                              ; preds = %161
  br label %164

164:                                              ; preds = %163, %65
  %165 = load ptr, ptr %3, align 8, !tbaa !6
  %166 = getelementptr inbounds nuw %struct.cbb_st, ptr %165, i32 0, i32 1
  %167 = load ptr, ptr %166, align 8, !tbaa !29
  %168 = getelementptr inbounds nuw %struct.cbb_st, ptr %167, i32 0, i32 3
  %169 = load i8, ptr %168, align 8, !tbaa !30
  %170 = zext i8 %169 to i32
  %171 = sub nsw i32 %170, 1
  %172 = sext i32 %171 to i64
  store i64 %172, ptr %5, align 8, !tbaa !11
  br label %173

173:                                              ; preds = %200, %164
  %174 = load i64, ptr %5, align 8, !tbaa !11
  %175 = load ptr, ptr %3, align 8, !tbaa !6
  %176 = getelementptr inbounds nuw %struct.cbb_st, ptr %175, i32 0, i32 1
  %177 = load ptr, ptr %176, align 8, !tbaa !29
  %178 = getelementptr inbounds nuw %struct.cbb_st, ptr %177, i32 0, i32 3
  %179 = load i8, ptr %178, align 8, !tbaa !30
  %180 = zext i8 %179 to i64
  %181 = icmp ult i64 %174, %180
  br i1 %181, label %182, label %203

182:                                              ; preds = %173
  %183 = load i64, ptr %6, align 8, !tbaa !11
  %184 = trunc i64 %183 to i8
  %185 = load ptr, ptr %3, align 8, !tbaa !6
  %186 = getelementptr inbounds nuw %struct.cbb_st, ptr %185, i32 0, i32 0
  %187 = load ptr, ptr %186, align 8, !tbaa !22
  %188 = getelementptr inbounds nuw %struct.cbb_buffer_st, ptr %187, i32 0, i32 0
  %189 = load ptr, ptr %188, align 8, !tbaa !17
  %190 = load ptr, ptr %3, align 8, !tbaa !6
  %191 = getelementptr inbounds nuw %struct.cbb_st, ptr %190, i32 0, i32 1
  %192 = load ptr, ptr %191, align 8, !tbaa !29
  %193 = getelementptr inbounds nuw %struct.cbb_st, ptr %192, i32 0, i32 2
  %194 = load i64, ptr %193, align 8, !tbaa !31
  %195 = load i64, ptr %5, align 8, !tbaa !11
  %196 = add i64 %194, %195
  %197 = getelementptr inbounds nuw i8, ptr %189, i64 %196
  store i8 %184, ptr %197, align 1, !tbaa !33
  %198 = load i64, ptr %6, align 8, !tbaa !11
  %199 = lshr i64 %198, 8
  store i64 %199, ptr %6, align 8, !tbaa !11
  br label %200

200:                                              ; preds = %182
  %201 = load i64, ptr %5, align 8, !tbaa !11
  %202 = add i64 %201, -1
  store i64 %202, ptr %5, align 8, !tbaa !11
  br label %173, !llvm.loop !34

203:                                              ; preds = %173
  %204 = load i64, ptr %6, align 8, !tbaa !11
  %205 = icmp ne i64 %204, 0
  br i1 %205, label %206, label %207

206:                                              ; preds = %203
  store i32 0, ptr %2, align 4
  store i32 1, ptr %7, align 4
  br label %214

207:                                              ; preds = %203
  %208 = load ptr, ptr %3, align 8, !tbaa !6
  %209 = getelementptr inbounds nuw %struct.cbb_st, ptr %208, i32 0, i32 1
  %210 = load ptr, ptr %209, align 8, !tbaa !29
  %211 = getelementptr inbounds nuw %struct.cbb_st, ptr %210, i32 0, i32 0
  store ptr null, ptr %211, align 8, !tbaa !22
  %212 = load ptr, ptr %3, align 8, !tbaa !6
  %213 = getelementptr inbounds nuw %struct.cbb_st, ptr %212, i32 0, i32 1
  store ptr null, ptr %213, align 8, !tbaa !29
  store i32 1, ptr %2, align 4
  store i32 1, ptr %7, align 4
  br label %214

214:                                              ; preds = %207, %206, %161, %64, %29, %15
  call void @llvm.lifetime.end.p0(i64 8, ptr %6) #7
  call void @llvm.lifetime.end.p0(i64 8, ptr %5) #7
  call void @llvm.lifetime.end.p0(i64 8, ptr %4) #7
  %215 = load i32, ptr %2, align 4
  ret i32 %215
}